; Function Attrs: mustprogress nofree norecurse nosync nounwind willreturn memory(read, inaccessiblemem: none) uwtable
define internal noundef zeroext i1 @"_ZNSt17_Function_handlerIFbRKN5clang6format17WhitespaceManager6ChangeEEZNS2_35alignConsecutiveShortCaseStatementsEbE3$_0E9_M_invokeERKSt9_Any_dataS5_"(ptr nocapture noundef nonnull readonly align 8 dereferenceable(16) %0, ptr nocapture noundef nonnull readonly align 8 dereferenceable(136) %1) #6 align 2 {
  %.val = load ptr, ptr %0, align 8
  %3 = getelementptr inbounds i8, ptr %0, i64 8
  %.val2 = load ptr, ptr %3, align 8
  %.val3 = load ptr, ptr %1, align 8
  %.val.val = load i8, ptr %.val, align 1
  %4 = trunc i8 %.val.val to i1
  br i1 %4, label %.sink.split.i.i.i, label %5

5:                                                ; preds = %2
  %6 = getelementptr inbounds i8, ptr %1, i64 104
  %.val4 = load i8, ptr %6, align 8
  %7 = trunc i8 %.val4 to i1
  br i1 %7, label %"_ZSt10__invoke_rIbRZN5clang6format17WhitespaceManager35alignConsecutiveShortCaseStatementsEbE3$_0JRKNS2_6ChangeEEENSt9enable_ifIX16is_invocable_r_vIT_T0_DpT1_EES9_E4typeEOSA_DpOSB_.exit", label %8

8:                                                ; preds = %5
  %9 = getelementptr inbounds nuw i8, ptr %.val3, i64 208
  %10 = load ptr, ptr %9, align 8
  %.not.i.i.i = icmp eq ptr %10, null
  br i1 %.not.i.i.i, label %"_ZSt10__invoke_rIbRZN5clang6format17WhitespaceManager35alignConsecutiveShortCaseStatementsEbE3$_0JRKNS2_6ChangeEEENSt9enable_ifIX16is_invocable_r_vIT_T0_DpT1_EES9_E4typeEOSA_DpOSB_.exit", label %.sink.split.i.i.i

.sink.split.i.i.i:                                ; preds = %8, %2
  %.sink.i.i.i = phi ptr [ %.val3, %2 ], [ %10, %8 ]
  %11 = load i8, ptr %.val2, align 1
  %12 = getelementptr inbounds nuw i8, ptr %.sink.i.i.i, i64 67
  %13 = load i8, ptr %12, align 1
  %14 = icmp eq i8 %13, %11
  br label %"_ZSt10__invoke_rIbRZN5clang6format17WhitespaceManager35alignConsecutiveShortCaseStatementsEbE3$_0JRKNS2_6ChangeEEENSt9enable_ifIX16is_invocable_r_vIT_T0_DpT1_EES9_E4typeEOSA_DpOSB_.exit"

"_ZSt10__invoke_rIbRZN5clang6format17WhitespaceManager35alignConsecutiveShortCaseStatementsEbE3$_0JRKNS2_6ChangeEEENSt9enable_ifIX16is_invocable_r_vIT_T0_DpT1_EES9_E4typeEOSA_DpOSB_.exit": ; preds = %5, %8, %.sink.split.i.i.i
  %.0.i.i.i = phi i1 [ false, %8 ], [ false, %5 ], [ %14, %.sink.split.i.i.i ]
  ret i1 %.0.i.i.i
}